target datalayout = "e-m:e-p270:32:32-p271:32:32-p272:64:64-i64:64-i128:128-f80:128-n8:16:32:64-S128"
target triple = "x86_64-pc-linux-gnu"

; Function Attrs: alwaysinline nounwind willreturn memory(none) uwtable
define internal zeroext i16 @av_bswap16(i16 noundef zeroext %0) #6 {
  %2 = alloca i16, align 2
  store i16 %0, ptr %2, align 2, !tbaa !49
  %3 = load i16, ptr %2, align 2, !tbaa !49
  %4 = zext i16 %3 to i32
  %5 = ashr i32 %4, 8
  %6 = load i16, ptr %2, align 2, !tbaa !49
  %7 = zext i16 %6 to i32
  %8 = shl i32 %7, 8
  %9 = or i32 %5, %8
  %10 = trunc i32 %9 to i16
  store i16 %10, ptr %2, align 2, !tbaa !49
  %11 = load i16, ptr %2, align 2, !tbaa !49
  ret i16 %11
}

; Function Attrs: alwaysinline nounwind willreturn memory(none) uwtable
define internal zeroext i16 @av_clip_uint16_c(i32 noundef %0) #6 {
  %2 = alloca i16, align 2
  %3 = alloca i32, align 4
  store i32 %0, ptr %3, align 4, !tbaa !30
  %4 = load i32, ptr %3, align 4, !tbaa !30
  %5 = and i32 %4, -65536
  %6 = icmp ne i32 %5, 0
  br i1 %6, label %7, label %12

7:                                                ; preds = %1
  %8 = load i32, ptr %3, align 4, !tbaa !30
  %9 = xor i32 %8, -1
  %10 = ashr i32 %9, 31
  %11 = trunc i32 %10 to i16
  store i16 %11, ptr %2, align 2
  br label %15

12:                                               ; preds = %1
  %13 = load i32, ptr %3, align 4, !tbaa !30
  %14 = trunc i32 %13 to i16
  store i16 %14, ptr %2, align 2
  br label %15

15:                                               ; preds = %12, %7
  %16 = load i16, ptr %2, align 2
  ret i16 %16
}

; Function Attrs: alwaysinline nounwind uwtable
define internal void @yuv2ya16_1_c_template(ptr noundef %0, ptr noundef %1, ptr noundef %2, ptr noundef %3, ptr noundef %4, ptr noundef %5, i32 noundef %6, i32 noundef %7, i32 noundef %8, i32 noundef %9, i32 noundef %10, i32 noundef %11, i32 noundef %12) #3 {
  %14 = alloca ptr, align 8
  %15 = alloca ptr, align 8
  %16 = alloca ptr, align 8
  %17 = alloca ptr, align 8
  %18 = alloca ptr, align 8
  %19 = alloca ptr, align 8
  %20 = alloca i32, align 4
  %21 = alloca i32, align 4
  %22 = alloca i32, align 4
  %23 = alloca i32, align 4
  %24 = alloca i32, align 4
  %25 = alloca i32, align 4
  %26 = alloca i32, align 4
  %27 = alloca i32, align 4
  %28 = alloca i32, align 4
  %29 = alloca i32, align 4
  %30 = alloca i32, align 4
  store ptr %0, ptr %14, align 8, !tbaa !4
  store ptr %1, ptr %15, align 8, !tbaa !61
  store ptr %2, ptr %16, align 8, !tbaa !59
  store ptr %3, ptr %17, align 8, !tbaa !59
  store ptr %4, ptr %18, align 8, !tbaa !61
  store ptr %5, ptr %19, align 8, !tbaa !45
  store i32 %6, ptr %20, align 4, !tbaa !30
  store i32 %7, ptr %21, align 4, !tbaa !30
  store i32 %8, ptr %22, align 4, !tbaa !30
  store i32 %9, ptr %23, align 4, !tbaa !30
  store i32 %10, ptr %24, align 4, !tbaa !30
  store i32 %11, ptr %25, align 4, !tbaa !30
  store i32 %12, ptr %26, align 4, !tbaa !30
  call void @llvm.lifetime.start.p0(i64 4, ptr %27) #8
  %31 = load ptr, ptr %18, align 8, !tbaa !61
  %32 = icmp ne ptr %31, null
  %33 = xor i1 %32, true
  %34 = xor i1 %33, true
  %35 = zext i1 %34 to i32
  store i32 %35, ptr %27, align 4, !tbaa !30
  call void @llvm.lifetime.start.p0(i64 4, ptr %28) #8
  store i32 0, ptr %28, align 4, !tbaa !30
  br label %36

36:                                               ; preds = %122, %13
  %37 = load i32, ptr %28, align 4, !tbaa !30
  %38 = load i32, ptr %20, align 4, !tbaa !30
  %39 = icmp slt i32 %37, %38
  br i1 %39, label %40, label %125

40:                                               ; preds = %36
  call void @llvm.lifetime.start.p0(i64 4, ptr %29) #8
  %41 = load ptr, ptr %15, align 8, !tbaa !61
  %42 = load i32, ptr %28, align 4, !tbaa !30
  %43 = sext i32 %42 to i64
  %44 = getelementptr inbounds i32, ptr %41, i64 %43
  %45 = load i32, ptr %44, align 4, !tbaa !30
  %46 = ashr i32 %45, 3
  store i32 %46, ptr %29, align 4, !tbaa !30
  call void @llvm.lifetime.start.p0(i64 4, ptr %30) #8
  %47 = load i32, ptr %29, align 4, !tbaa !30
  %48 = call zeroext i16 @av_clip_uint16_c(i32 noundef %47) #10
  %49 = zext i16 %48 to i32
  store i32 %49, ptr %29, align 4, !tbaa !30
  %50 = load i32, ptr %27, align 4, !tbaa !30
  %51 = icmp ne i32 %50, 0
  br i1 %51, label %52, label %67

52:                                               ; preds = %40
  %53 = load ptr, ptr %18, align 8, !tbaa !61
  %54 = load i32, ptr %28, align 4, !tbaa !30
  %55 = sext i32 %54 to i64
  %56 = getelementptr inbounds i32, ptr %53, i64 %55
  %57 = load i32, ptr %56, align 4, !tbaa !30
  %58 = ashr i32 %57, 3
  store i32 %58, ptr %30, align 4, !tbaa !30
  %59 = load i32, ptr %30, align 4, !tbaa !30
  %60 = and i32 %59, 256
  %61 = icmp ne i32 %60, 0
  br i1 %61, label %62, label %66

62:                                               ; preds = %52
  %63 = load i32, ptr %30, align 4, !tbaa !30
  %64 = call zeroext i16 @av_clip_uint16_c(i32 noundef %63) #10
  %65 = zext i16 %64 to i32
  store i32 %65, ptr %30, align 4, !tbaa !30
  br label %66

66:                                               ; preds = %62, %52
  br label %67

67:                                               ; preds = %66, %40
  %68 = load i32, ptr %26, align 4, !tbaa !30
  %69 = icmp ne i32 %68, 0
  br i1 %69, label %70, label %79

70:                                               ; preds = %67
  %71 = load i32, ptr %29, align 4, !tbaa !30
  %72 = trunc i32 %71 to i16
  %73 = call zeroext i16 @av_bswap16(i16 noundef zeroext %72) #10
  %74 = load ptr, ptr %19, align 8, !tbaa !45
  %75 = load i32, ptr %28, align 4, !tbaa !30
  %76 = mul nsw i32 2, %75
  %77 = sext i32 %76 to i64
  %78 = getelementptr inbounds i16, ptr %74, i64 %77
  store i16 %73, ptr %78, align 1, !tbaa !51
  br label %87

79:                                               ; preds = %67
  %80 = load i32, ptr %29, align 4, !tbaa !30
  %81 = trunc i32 %80 to i16
  %82 = load ptr, ptr %19, align 8, !tbaa !45
  %83 = load i32, ptr %28, align 4, !tbaa !30
  %84 = mul nsw i32 2, %83
  %85 = sext i32 %84 to i64
  %86 = getelementptr inbounds i16, ptr %82, i64 %85
  store i16 %81, ptr %86, align 1, !tbaa !51
  br label %87

87:                                               ; preds = %79, %70
  %88 = load i32, ptr %26, align 4, !tbaa !30
  %89 = icmp ne i32 %88, 0
  br i1 %89, label %90, label %106

90:                                               ; preds = %87
  %91 = load i32, ptr %27, align 4, !tbaa !30
  %92 = icmp ne i32 %91, 0
  br i1 %92, label %93, label %95

93:                                               ; preds = %90
  %94 = load i32, ptr %30, align 4, !tbaa !30
  br label %96

95:                                               ; preds = %90
  br label %96

96:                                               ; preds = %95, %93
  %97 = phi i32 [ %94, %93 ], [ 65535, %95 ]
  %98 = trunc i32 %97 to i16
  %99 = call zeroext i16 @av_bswap16(i16 noundef zeroext %98) #10
  %100 = load ptr, ptr %19, align 8, !tbaa !45
  %101 = load i32, ptr %28, align 4, !tbaa !30
  %102 = mul nsw i32 2, %101
  %103 = add nsw i32 %102, 1
  %104 = sext i32 %103 to i64
  %105 = getelementptr inbounds i16, ptr %100, i64 %104
  store i16 %99, ptr %105, align 1, !tbaa !51
  br label %121

106:                                              ; preds = %87
  %107 = load i32, ptr %27, align 4, !tbaa !30
  %108 = icmp ne i32 %107, 0
  br i1 %108, label %109, label %111

109:                                              ; preds = %106
  %110 = load i32, ptr %30, align 4, !tbaa !30
  br label %112

111:                                              ; preds = %106
  br label %112

112:                                              ; preds = %111, %109
  %113 = phi i32 [ %110, %109 ], [ 65535, %111 ]
  %114 = trunc i32 %113 to i16
  %115 = load ptr, ptr %19, align 8, !tbaa !45
  %116 = load i32, ptr %28, align 4, !tbaa !30
  %117 = mul nsw i32 2, %116
  %118 = add nsw i32 %117, 1
  %119 = sext i32 %118 to i64
  %120 = getelementptr inbounds i16, ptr %115, i64 %119
  store i16 %114, ptr %120, align 1, !tbaa !51
  br label %121

121:                                              ; preds = %112, %96
  call void @llvm.lifetime.end.p0(i64 4, ptr %30) #8
  call void @llvm.lifetime.end.p0(i64 4, ptr %29) #8
  br label %122

122:                                              ; preds = %121
  %123 = load i32, ptr %28, align 4, !tbaa !30
  %124 = add nsw i32 %123, 1
  store i32 %124, ptr %28, align 4, !tbaa !30
  br label %36, !llvm.loop !171

125:                                              ; preds = %36
  call void @llvm.lifetime.end.p0(i64 4, ptr %28) #8
  call void @llvm.lifetime.end.p0(i64 4, ptr %27) #8
  ret void
}

; Function Attrs: nounwind uwtable
define internal void @yuv2ya16le_1_c(ptr noundef %0, ptr noundef %1, ptr noundef %2, ptr noundef %3, ptr noundef %4, ptr noundef %5, i32 noundef %6, i32 noundef %7, i32 noundef %8) #4 {
  %10 = alloca ptr, align 8
  %11 = alloca ptr, align 8
  %12 = alloca ptr, align 8
  %13 = alloca ptr, align 8
  %14 = alloca ptr, align 8
  %15 = alloca ptr, align 8
  %16 = alloca i32, align 4
  %17 = alloca i32, align 4
  %18 = alloca i32, align 4
  %19 = alloca ptr, align 8
  %20 = alloca ptr, align 8
  %21 = alloca ptr, align 8
  %22 = alloca ptr, align 8
  %23 = alloca ptr, align 8
  store ptr %0, ptr %10, align 8, !tbaa !4
  store ptr %1, ptr %11, align 8, !tbaa !45
  store ptr %2, ptr %12, align 8, !tbaa !47
  store ptr %3, ptr %13, align 8, !tbaa !47
  store ptr %4, ptr %14, align 8, !tbaa !45
  store ptr %5, ptr %15, align 8, !tbaa !46
  store i32 %6, ptr %16, align 4, !tbaa !30
  store i32 %7, ptr %17, align 4, !tbaa !30
  store i32 %8, ptr %18, align 4, !tbaa !30
  call void @llvm.lifetime.start.p0(i64 8, ptr %19) #8
  %24 = load ptr, ptr %11, align 8, !tbaa !45
  store ptr %24, ptr %19, align 8, !tbaa !61
  call void @llvm.lifetime.start.p0(i64 8, ptr %20) #8
  %25 = load ptr, ptr %12, align 8, !tbaa !47
  store ptr %25, ptr %20, align 8, !tbaa !59
  call void @llvm.lifetime.start.p0(i64 8, ptr %21) #8
  %26 = load ptr, ptr %13, align 8, !tbaa !47
  store ptr %26, ptr %21, align 8, !tbaa !59
  call void @llvm.lifetime.start.p0(i64 8, ptr %22) #8
  %27 = load ptr, ptr %14, align 8, !tbaa !45
  store ptr %27, ptr %22, align 8, !tbaa !61
  call void @llvm.lifetime.start.p0(i64 8, ptr %23) #8
  %28 = load ptr, ptr %15, align 8, !tbaa !46
  store ptr %28, ptr %23, align 8, !tbaa !45
  %29 = load ptr, ptr %10, align 8, !tbaa !4
  %30 = load ptr, ptr %19, align 8, !tbaa !61
  %31 = load ptr, ptr %20, align 8, !tbaa !59
  %32 = load ptr, ptr %21, align 8, !tbaa !59
  %33 = load ptr, ptr %22, align 8, !tbaa !61
  %34 = load ptr, ptr %23, align 8, !tbaa !45
  %35 = load i32, ptr %16, align 4, !tbaa !30
  %36 = load i32, ptr %17, align 4, !tbaa !30
  %37 = load i32, ptr %18, align 4, !tbaa !30
  call void @yuv2ya16_1_c_template(ptr noundef %29, ptr noundef %30, ptr noundef %31, ptr noundef %32, ptr noundef %33, ptr noundef %34, i32 noundef %35, i32 noundef %36, i32 noundef %37, i32 noundef 110, i32 noundef 1, i32 noundef 0, i32 noundef 0)
  call void @llvm.lifetime.end.p0(i64 8, ptr %23) #8
  call void @llvm.lifetime.end.p0(i64 8, ptr %22) #8
  call void @llvm.lifetime.end.p0(i64 8, ptr %21) #8
  call void @llvm.lifetime.end.p0(i64 8, ptr %20) #8
  call void @llvm.lifetime.end.p0(i64 8, ptr %19) #8
  ret void
}