; Function Attrs: nofree norecurse nosync nounwind memory(argmem: readwrite) uwtable
define internal void @yuv2ya16le_1_c(ptr readnone captures(none) %0, ptr noundef readonly captures(none) %1, ptr readnone captures(none) %2, ptr readnone captures(none) %3, ptr noundef readonly captures(address_is_null) %4, ptr noundef writeonly captures(none) %5, i32 noundef %6, i32 %7, i32 %8) #2 {
  %10 = icmp sgt i32 %6, 0
  br i1 %10, label %.lr.ph, label %yuv2ya16_1_c_template.exit

.lr.ph:                                           ; preds = %9
  %.not.i = icmp eq ptr %4, null
  %wide.trip.count19 = zext nneg i32 %6 to i64
  br i1 %.not.i, label %.lr.ph.split.us, label %.lr.ph.split

.lr.ph.split.us:                                  ; preds = %.lr.ph, %.lr.ph.split.us
  %indvars.iv16 = phi i64 [ %indvars.iv.next17, %.lr.ph.split.us ], [ 0, %.lr.ph ]
  %11 = getelementptr inbounds nuw i32, ptr %1, i64 %indvars.iv16
  %12 = load i32, ptr %11, align 4, !tbaa !49
  %13 = ashr i32 %12, 3
  %.not.i31.i.us = icmp ult i32 %13, 65536
  %isnotneg.i32.i.us = icmp sgt i32 %13, -1
  %14 = sext i1 %isnotneg.i32.i.us to i16
  %15 = trunc nuw i32 %13 to i16
  %.0.i33.i.us = select i1 %.not.i31.i.us, i16 %15, i16 %14
  %.idx21 = shl nuw nsw i64 %indvars.iv16, 2
  %16 = getelementptr inbounds nuw i8, ptr %5, i64 %.idx21
  store i16 %.0.i33.i.us, ptr %16, align 1, !tbaa !41
  %17 = getelementptr inbounds nuw i8, ptr %16, i64 2
  store i16 -1, ptr %17, align 1, !tbaa !41
  %indvars.iv.next17 = add nuw nsw i64 %indvars.iv16, 1
  %exitcond20.not = icmp eq i64 %indvars.iv.next17, %wide.trip.count19
  br i1 %exitcond20.not, label %yuv2ya16_1_c_template.exit, label %.lr.ph.split.us, !llvm.loop !149

.lr.ph.split:                                     ; preds = %.lr.ph, %.lr.ph.split
  %indvars.iv = phi i64 [ %indvars.iv.next, %.lr.ph.split ], [ 0, %.lr.ph ]
  %18 = getelementptr inbounds nuw i32, ptr %1, i64 %indvars.iv
  %19 = load i32, ptr %18, align 4, !tbaa !49
  %20 = ashr i32 %19, 3
  %.not.i31.i = icmp ult i32 %20, 65536
  %isnotneg.i32.i = icmp sgt i32 %20, -1
  %21 = sext i1 %isnotneg.i32.i to i16
  %22 = trunc nuw i32 %20 to i16
  %.0.i33.i = select i1 %.not.i31.i, i16 %22, i16 %21
  %23 = getelementptr inbounds nuw i32, ptr %4, i64 %indvars.iv
  %24 = load i32, ptr %23, align 4, !tbaa !49
  %25 = ashr i32 %24, 3
  %26 = and i32 %24, 2048
  %.not29.i = icmp eq i32 %26, 0
  %.not.i.i = icmp ult i32 %25, 65536
  %isnotneg.i.i = icmp sgt i32 %25, -1
  %27 = sext i1 %isnotneg.i.i to i32
  %28 = or i1 %.not29.i, %.not.i.i
  %29 = select i1 %28, i32 %25, i32 %27
  %.idx = shl nuw nsw i64 %indvars.iv, 2
  %30 = getelementptr inbounds nuw i8, ptr %5, i64 %.idx
  store i16 %.0.i33.i, ptr %30, align 1, !tbaa !41
  %31 = trunc i32 %29 to i16
  %32 = getelementptr inbounds nuw i8, ptr %30, i64 2
  store i16 %31, ptr %32, align 1, !tbaa !41
  %indvars.iv.next = add nuw nsw i64 %indvars.iv, 1
  %exitcond.not = icmp eq i64 %indvars.iv.next, %wide.trip.count19
  br i1 %exitcond.not, label %yuv2ya16_1_c_template.exit, label %.lr.ph.split, !llvm.loop !149

yuv2ya16_1_c_template.exit:                       ; preds = %.lr.ph.split, %.lr.ph.split.us, %9
  ret void
}